target datalayout = "e-m:e-p270:32:32-p271:32:32-p272:64:64-i64:64-i128:128-f80:128-n8:16:32:64-S128"
target triple = "x86_64-pc-linux-gnu"

%struct.ECPGtype = type { i32, ptr, ptr, ptr, %union.anon, i32 }
%union.anon = type { ptr }
%struct.ECPGstruct_member = type { ptr, ptr, ptr }

@.str = private unnamed_addr constant [2 x i8] c"1\00", align 1

; Function Attrs: nounwind uwtable
define dso_local void @ECPGmake_struct_member(ptr noundef %0, ptr noundef %1, ptr noundef %2) #0 {
  %4 = alloca ptr, align 8
  %5 = alloca ptr, align 8
  %6 = alloca ptr, align 8
  %7 = alloca ptr, align 8
  %8 = alloca ptr, align 8
  store ptr %0, ptr %4, align 8
  store ptr %1, ptr %5, align 8
  store ptr %2, ptr %6, align 8
  call void @llvm.lifetime.start.p0(i64 8, ptr %7) #7
  call void @llvm.lifetime.start.p0(i64 8, ptr %8) #7
  %9 = call ptr @mm_alloc(i64 noundef 24)
  store ptr %9, ptr %8, align 8
  %10 = load ptr, ptr %4, align 8
  %11 = call ptr @mm_strdup(ptr noundef %10)
  %12 = load ptr, ptr %8, align 8
  %13 = getelementptr inbounds nuw %struct.ECPGstruct_member, ptr %12, i32 0, i32 0
  store ptr %11, ptr %13, align 8
  %14 = load ptr, ptr %5, align 8
  %15 = load ptr, ptr %8, align 8
  %16 = getelementptr inbounds nuw %struct.ECPGstruct_member, ptr %15, i32 0, i32 1
  store ptr %14, ptr %16, align 8
  %17 = load ptr, ptr %8, align 8
  %18 = getelementptr inbounds nuw %struct.ECPGstruct_member, ptr %17, i32 0, i32 2
  store ptr null, ptr %18, align 8
  %19 = load ptr, ptr %6, align 8
  %20 = load ptr, ptr %19, align 8
  store ptr %20, ptr %7, align 8
  br label %21

21:                                               ; preds = %32, %3
  %22 = load ptr, ptr %7, align 8
  %23 = icmp ne ptr %22, null
  br i1 %23, label %24, label %29

24:                                               ; preds = %21
  %25 = load ptr, ptr %7, align 8
  %26 = getelementptr inbounds nuw %struct.ECPGstruct_member, ptr %25, i32 0, i32 2
  %27 = load ptr, ptr %26, align 8
  %28 = icmp ne ptr %27, null
  br label %29

29:                                               ; preds = %24, %21
  %30 = phi i1 [ false, %21 ], [ %28, %24 ]
  br i1 %30, label %31, label %36

31:                                               ; preds = %29
  br label %32

32:                                               ; preds = %31
  %33 = load ptr, ptr %7, align 8
  %34 = getelementptr inbounds nuw %struct.ECPGstruct_member, ptr %33, i32 0, i32 2
  %35 = load ptr, ptr %34, align 8
  store ptr %35, ptr %7, align 8
  br label %21, !llvm.loop !6

36:                                               ; preds = %29
  %37 = load ptr, ptr %7, align 8
  %38 = icmp ne ptr %37, null
  br i1 %38, label %39, label %43

39:                                               ; preds = %36
  %40 = load ptr, ptr %8, align 8
  %41 = load ptr, ptr %7, align 8
  %42 = getelementptr inbounds nuw %struct.ECPGstruct_member, ptr %41, i32 0, i32 2
  store ptr %40, ptr %42, align 8
  br label %46

43:                                               ; preds = %36
  %44 = load ptr, ptr %8, align 8
  %45 = load ptr, ptr %6, align 8
  store ptr %44, ptr %45, align 8
  br label %46

46:                                               ; preds = %43, %39
  call void @llvm.lifetime.end.p0(i64 8, ptr %8) #7
  call void @llvm.lifetime.end.p0(i64 8, ptr %7) #7
  ret void
}

; Function Attrs: nounwind uwtable
define dso_local ptr @ECPGmake_array_type(ptr noundef %0, ptr noundef %1) #0 {
  %3 = alloca ptr, align 8
  %4 = alloca ptr, align 8
  %5 = alloca ptr, align 8
  store ptr %0, ptr %3, align 8
  store ptr %1, ptr %4, align 8
  call void @llvm.lifetime.start.p0(i64 8, ptr %5) #7
  %6 = load ptr, ptr %4, align 8
  %7 = call ptr @ECPGmake_simple_type(i32 noundef 21, ptr noundef %6, i32 noundef 0)
  store ptr %7, ptr %5, align 8
  %8 = load ptr, ptr %3, align 8
  %9 = load ptr, ptr %5, align 8
  %10 = getelementptr inbounds nuw %struct.ECPGtype, ptr %9, i32 0, i32 4
  store ptr %8, ptr %10, align 8
  %11 = load ptr, ptr %5, align 8
  call void @llvm.lifetime.end.p0(i64 8, ptr %5) #7
  ret ptr %11
}

; Function Attrs: nounwind uwtable
define dso_local ptr @ECPGmake_simple_type(i32 noundef %0, ptr noundef %1, i32 noundef %2) #0 {
  %4 = alloca i32, align 4
  %5 = alloca ptr, align 8
  %6 = alloca i32, align 4
  %7 = alloca ptr, align 8
  store i32 %0, ptr %4, align 4
  store ptr %1, ptr %5, align 8
  store i32 %2, ptr %6, align 4
  call void @llvm.lifetime.start.p0(i64 8, ptr %7) #7
  %8 = call ptr @mm_alloc(i64 noundef 48)
  store ptr %8, ptr %7, align 8
  %9 = load i32, ptr %4, align 4
  %10 = load ptr, ptr %7, align 8
  %11 = getelementptr inbounds nuw %struct.ECPGtype, ptr %10, i32 0, i32 0
  store i32 %9, ptr %11, align 8
  %12 = load ptr, ptr %7, align 8
  %13 = getelementptr inbounds nuw %struct.ECPGtype, ptr %12, i32 0, i32 1
  store ptr null, ptr %13, align 8
  %14 = load ptr, ptr %5, align 8
  %15 = call ptr @mm_strdup(ptr noundef %14)
  %16 = load ptr, ptr %7, align 8
  %17 = getelementptr inbounds nuw %struct.ECPGtype, ptr %16, i32 0, i32 2
  store ptr %15, ptr %17, align 8
  %18 = load ptr, ptr %7, align 8
  %19 = getelementptr inbounds nuw %struct.ECPGtype, ptr %18, i32 0, i32 4
  store ptr null, ptr %19, align 8
  %20 = load ptr, ptr %7, align 8
  %21 = getelementptr inbounds nuw %struct.ECPGtype, ptr %20, i32 0, i32 3
  store ptr null, ptr %21, align 8
  %22 = load i32, ptr %6, align 4
  %23 = load ptr, ptr %7, align 8
  %24 = getelementptr inbounds nuw %struct.ECPGtype, ptr %23, i32 0, i32 5
  store i32 %22, ptr %24, align 8
  %25 = load ptr, ptr %7, align 8
  call void @llvm.lifetime.end.p0(i64 8, ptr %7) #7
  ret ptr %25
}

; Function Attrs: nounwind uwtable
define dso_local ptr @ECPGmake_struct_type(ptr noundef %0, i32 noundef %1, ptr noundef %2, ptr noundef %3) #0 {
  %5 = alloca ptr, align 8
  %6 = alloca i32, align 4
  %7 = alloca ptr, align 8
  %8 = alloca ptr, align 8
  %9 = alloca ptr, align 8
  store ptr %0, ptr %5, align 8
  store i32 %1, ptr %6, align 4
  store ptr %2, ptr %7, align 8
  store ptr %3, ptr %8, align 8
  call void @llvm.lifetime.start.p0(i64 8, ptr %9) #7
  %10 = load i32, ptr %6, align 4
  %11 = call ptr @ECPGmake_simple_type(i32 noundef %10, ptr noundef @.str, i32 noundef 0)
  store ptr %11, ptr %9, align 8
  %12 = load ptr, ptr %7, align 8
  %13 = call ptr @mm_strdup(ptr noundef %12)
  %14 = load ptr, ptr %9, align 8
  %15 = getelementptr inbounds nuw %struct.ECPGtype, ptr %14, i32 0, i32 1
  store ptr %13, ptr %15, align 8
  %16 = load ptr, ptr %5, align 8
  %17 = call ptr @ECPGstruct_member_dup(ptr noundef %16)
  %18 = load ptr, ptr %9, align 8
  %19 = getelementptr inbounds nuw %struct.ECPGtype, ptr %18, i32 0, i32 4
  store ptr %17, ptr %19, align 8
  %20 = load ptr, ptr %8, align 8
  %21 = call ptr @mm_strdup(ptr noundef %20)
  %22 = load ptr, ptr %9, align 8
  %23 = getelementptr inbounds nuw %struct.ECPGtype, ptr %22, i32 0, i32 3
  store ptr %21, ptr %23, align 8
  %24 = load ptr, ptr %9, align 8
  call void @llvm.lifetime.end.p0(i64 8, ptr %9) #7
  ret ptr %24
}

; Function Attrs: nounwind uwtable
define dso_local ptr @ECPGstruct_member_dup(ptr noundef %0) #0 {
  %2 = alloca ptr, align 8
  %3 = alloca ptr, align 8
  %4 = alloca ptr, align 8
  store ptr %0, ptr %2, align 8
  call void @llvm.lifetime.start.p0(i64 8, ptr %3) #7
  store ptr null, ptr %3, align 8
  br label %5

5:                                                ; preds = %131, %1
  %6 = load ptr, ptr %2, align 8
  %7 = icmp ne ptr %6, null
  br i1 %7, label %8, label %139

8:                                                ; preds = %5
  call void @llvm.lifetime.start.p0(i64 8, ptr %4) #7
  %9 = load ptr, ptr %2, align 8
  %10 = getelementptr inbounds nuw %struct.ECPGstruct_member, ptr %9, i32 0, i32 1
  %11 = load ptr, ptr %10, align 8
  %12 = getelementptr inbounds nuw %struct.ECPGtype, ptr %11, i32 0, i32 0
  %13 = load i32, ptr %12, align 8
  switch i32 %13, label %114 [
    i32 22, label %14
    i32 23, label %14
    i32 21, label %36
  ]

14:                                               ; preds = %8, %8
  %15 = load ptr, ptr %2, align 8
  %16 = getelementptr inbounds nuw %struct.ECPGstruct_member, ptr %15, i32 0, i32 1
  %17 = load ptr, ptr %16, align 8
  %18 = getelementptr inbounds nuw %struct.ECPGtype, ptr %17, i32 0, i32 4
  %19 = load ptr, ptr %18, align 8
  %20 = load ptr, ptr %2, align 8
  %21 = getelementptr inbounds nuw %struct.ECPGstruct_member, ptr %20, i32 0, i32 1
  %22 = load ptr, ptr %21, align 8
  %23 = getelementptr inbounds nuw %struct.ECPGtype, ptr %22, i32 0, i32 0
  %24 = load i32, ptr %23, align 8
  %25 = load ptr, ptr %2, align 8
  %26 = getelementptr inbounds nuw %struct.ECPGstruct_member, ptr %25, i32 0, i32 1
  %27 = load ptr, ptr %26, align 8
  %28 = getelementptr inbounds nuw %struct.ECPGtype, ptr %27, i32 0, i32 1
  %29 = load ptr, ptr %28, align 8
  %30 = load ptr, ptr %2, align 8
  %31 = getelementptr inbounds nuw %struct.ECPGstruct_member, ptr %30, i32 0, i32 1
  %32 = load ptr, ptr %31, align 8
  %33 = getelementptr inbounds nuw %struct.ECPGtype, ptr %32, i32 0, i32 3
  %34 = load ptr, ptr %33, align 8
  %35 = call ptr @ECPGmake_struct_type(ptr noundef %19, i32 noundef %24, ptr noundef %29, ptr noundef %34)
  store ptr %35, ptr %4, align 8
  br label %131

36:                                               ; preds = %8
  %37 = load ptr, ptr %2, align 8
  %38 = getelementptr inbounds nuw %struct.ECPGstruct_member, ptr %37, i32 0, i32 1
  %39 = load ptr, ptr %38, align 8
  %40 = getelementptr inbounds nuw %struct.ECPGtype, ptr %39, i32 0, i32 4
  %41 = load ptr, ptr %40, align 8
  %42 = getelementptr inbounds nuw %struct.ECPGtype, ptr %41, i32 0, i32 0
  %43 = load i32, ptr %42, align 8
  %44 = icmp eq i32 %43, 22
  br i1 %44, label %54, label %45

45:                                               ; preds = %36
  %46 = load ptr, ptr %2, align 8
  %47 = getelementptr inbounds nuw %struct.ECPGstruct_member, ptr %46, i32 0, i32 1
  %48 = load ptr, ptr %47, align 8
  %49 = getelementptr inbounds nuw %struct.ECPGtype, ptr %48, i32 0, i32 4
  %50 = load ptr, ptr %49, align 8
  %51 = getelementptr inbounds nuw %struct.ECPGtype, ptr %50, i32 0, i32 0
  %52 = load i32, ptr %51, align 8
  %53 = icmp eq i32 %52, 23
  br i1 %53, label %54, label %84

54:                                               ; preds = %45, %36
  %55 = load ptr, ptr %2, align 8
  %56 = getelementptr inbounds nuw %struct.ECPGstruct_member, ptr %55, i32 0, i32 1
  %57 = load ptr, ptr %56, align 8
  %58 = getelementptr inbounds nuw %struct.ECPGtype, ptr %57, i32 0, i32 4
  %59 = load ptr, ptr %58, align 8
  %60 = getelementptr inbounds nuw %struct.ECPGtype, ptr %59, i32 0, i32 4
  %61 = load ptr, ptr %60, align 8
  %62 = load ptr, ptr %2, align 8
  %63 = getelementptr inbounds nuw %struct.ECPGstruct_member, ptr %62, i32 0, i32 1
  %64 = load ptr, ptr %63, align 8
  %65 = getelementptr inbounds nuw %struct.ECPGtype, ptr %64, i32 0, i32 4
  %66 = load ptr, ptr %65, align 8
  %67 = getelementptr inbounds nuw %struct.ECPGtype, ptr %66, i32 0, i32 0
  %68 = load i32, ptr %67, align 8
  %69 = load ptr, ptr %2, align 8
  %70 = getelementptr inbounds nuw %struct.ECPGstruct_member, ptr %69, i32 0, i32 1
  %71 = load ptr, ptr %70, align 8
  %72 = getelementptr inbounds nuw %struct.ECPGtype, ptr %71, i32 0, i32 4
  %73 = load ptr, ptr %72, align 8
  %74 = getelementptr inbounds nuw %struct.ECPGtype, ptr %73, i32 0, i32 1
  %75 = load ptr, ptr %74, align 8
  %76 = load ptr, ptr %2, align 8
  %77 = getelementptr inbounds nuw %struct.ECPGstruct_member, ptr %76, i32 0, i32 1
  %78 = load ptr, ptr %77, align 8
  %79 = getelementptr inbounds nuw %struct.ECPGtype, ptr %78, i32 0, i32 4
  %80 = load ptr, ptr %79, align 8
  %81 = getelementptr inbounds nuw %struct.ECPGtype, ptr %80, i32 0, i32 3
  %82 = load ptr, ptr %81, align 8
  %83 = call ptr @ECPGmake_struct_type(ptr noundef %61, i32 noundef %68, ptr noundef %75, ptr noundef %82)
  store ptr %83, ptr %4, align 8
  br label %113

84:                                               ; preds = %45
  %85 = load ptr, ptr %2, align 8
  %86 = getelementptr inbounds nuw %struct.ECPGstruct_member, ptr %85, i32 0, i32 1
  %87 = load ptr, ptr %86, align 8
  %88 = getelementptr inbounds nuw %struct.ECPGtype, ptr %87, i32 0, i32 4
  %89 = load ptr, ptr %88, align 8
  %90 = getelementptr inbounds nuw %struct.ECPGtype, ptr %89, i32 0, i32 0
  %91 = load i32, ptr %90, align 8
  %92 = load ptr, ptr %2, align 8
  %93 = getelementptr inbounds nuw %struct.ECPGstruct_member, ptr %92, i32 0, i32 1
  %94 = load ptr, ptr %93, align 8
  %95 = getelementptr inbounds nuw %struct.ECPGtype, ptr %94, i32 0, i32 4
  %96 = load ptr, ptr %95, align 8
  %97 = getelementptr inbounds nuw %struct.ECPGtype, ptr %96, i32 0, i32 2
  %98 = load ptr, ptr %97, align 8
  %99 = load ptr, ptr %2, align 8
  %100 = getelementptr inbounds nuw %struct.ECPGstruct_member, ptr %99, i32 0, i32 1
  %101 = load ptr, ptr %100, align 8
  %102 = getelementptr inbounds nuw %struct.ECPGtype, ptr %101, i32 0, i32 4
  %103 = load ptr, ptr %102, align 8
  %104 = getelementptr inbounds nuw %struct.ECPGtype, ptr %103, i32 0, i32 5
  %105 = load i32, ptr %104, align 8
  %106 = call ptr @ECPGmake_simple_type(i32 noundef %91, ptr noundef %98, i32 noundef %105)
  %107 = load ptr, ptr %2, align 8
  %108 = getelementptr inbounds nuw %struct.ECPGstruct_member, ptr %107, i32 0, i32 1
  %109 = load ptr, ptr %108, align 8
  %110 = getelementptr inbounds nuw %struct.ECPGtype, ptr %109, i32 0, i32 2
  %111 = load ptr, ptr %110, align 8
  %112 = call ptr @ECPGmake_array_type(ptr noundef %106, ptr noundef %111)
  store ptr %112, ptr %4, align 8
  br label %113

113:                                              ; preds = %84, %54
  br label %131

114:                                              ; preds = %8
  %115 = load ptr, ptr %2, align 8
  %116 = getelementptr inbounds nuw %struct.ECPGstruct_member, ptr %115, i32 0, i32 1
  %117 = load ptr, ptr %116, align 8
  %118 = getelementptr inbounds nuw %struct.ECPGtype, ptr %117, i32 0, i32 0
  %119 = load i32, ptr %118, align 8
  %120 = load ptr, ptr %2, align 8
  %121 = getelementptr inbounds nuw %struct.ECPGstruct_member, ptr %120, i32 0, i32 1
  %122 = load ptr, ptr %121, align 8
  %123 = getelementptr inbounds nuw %struct.ECPGtype, ptr %122, i32 0, i32 2
  %124 = load ptr, ptr %123, align 8
  %125 = load ptr, ptr %2, align 8
  %126 = getelementptr inbounds nuw %struct.ECPGstruct_member, ptr %125, i32 0, i32 1
  %127 = load ptr, ptr %126, align 8
  %128 = getelementptr inbounds nuw %struct.ECPGtype, ptr %127, i32 0, i32 5
  %129 = load i32, ptr %128, align 8
  %130 = call ptr @ECPGmake_simple_type(i32 noundef %119, ptr noundef %124, i32 noundef %129)
  store ptr %130, ptr %4, align 8
  br label %131

131:                                              ; preds = %114, %113, %14
  %132 = load ptr, ptr %2, align 8
  %133 = getelementptr inbounds nuw %struct.ECPGstruct_member, ptr %132, i32 0, i32 0
  %134 = load ptr, ptr %133, align 8
  %135 = load ptr, ptr %4, align 8
  call void @ECPGmake_struct_member(ptr noundef %134, ptr noundef %135, ptr noundef %3)
  %136 = load ptr, ptr %2, align 8
  %137 = getelementptr inbounds nuw %struct.ECPGstruct_member, ptr %136, i32 0, i32 2
  %138 = load ptr, ptr %137, align 8
  store ptr %138, ptr %2, align 8
  call void @llvm.lifetime.end.p0(i64 8, ptr %4) #7
  br label %5, !llvm.loop !4

139:                                              ; preds = %5
  %140 = load ptr, ptr %3, align 8
  call void @llvm.lifetime.end.p0(i64 8, ptr %3) #7
  ret ptr %140
}