; Function Attrs: nounwind uwtable
define dso_local ptr @ECPGstruct_member_dup(ptr noundef readonly captures(address_is_null) %0) local_unnamed_addr #0 {
  %.not26 = icmp eq ptr %0, null
  br i1 %.not26, label %._crit_edge, label %.lr.ph

.lr.ph:                                           ; preds = %1, %ECPGmake_struct_member.exit
  %.02228 = phi ptr [ %85, %ECPGmake_struct_member.exit ], [ %0, %1 ]
  %.02527 = phi ptr [ %.1, %ECPGmake_struct_member.exit ], [ null, %1 ]
  %2 = getelementptr inbounds nuw i8, ptr %.02228, i64 8
  %3 = load ptr, ptr %2, align 8
  %4 = load i32, ptr %3, align 8
  switch i32 %4, label %62 [
    i32 22, label %5
    i32 23, label %5
    i32 21, label %21
  ]

5:                                                ; preds = %.lr.ph, %.lr.ph
  %6 = getelementptr inbounds nuw i8, ptr %3, i64 32
  %7 = load ptr, ptr %6, align 8
  %8 = getelementptr inbounds nuw i8, ptr %3, i64 8
  %9 = load ptr, ptr %8, align 8
  %10 = getelementptr inbounds nuw i8, ptr %3, i64 24
  %11 = load ptr, ptr %10, align 8
  %12 = tail call ptr @mm_alloc(i64 noundef 48) #7
  store i32 %4, ptr %12, align 8
  %13 = getelementptr inbounds nuw i8, ptr %12, i64 8
  store ptr null, ptr %13, align 8
  %14 = tail call ptr @mm_strdup(ptr noundef nonnull @.str) #7
  %15 = getelementptr inbounds nuw i8, ptr %12, i64 16
  store ptr %14, ptr %15, align 8
  %16 = getelementptr inbounds nuw i8, ptr %12, i64 24
  tail call void @llvm.memset.p0.i64(ptr noundef nonnull align 8 dereferenceable(20) %16, i8 0, i64 20, i1 false)
  %17 = tail call ptr @mm_strdup(ptr noundef %9) #7
  store ptr %17, ptr %13, align 8
  %18 = tail call ptr @ECPGstruct_member_dup(ptr noundef %7)
  %19 = getelementptr inbounds nuw i8, ptr %12, i64 32
  store ptr %18, ptr %19, align 8
  %20 = tail call ptr @mm_strdup(ptr noundef %11) #7
  store ptr %20, ptr %16, align 8
  br label %73

21:                                               ; preds = %.lr.ph
  %22 = getelementptr inbounds nuw i8, ptr %3, i64 32
  %23 = load ptr, ptr %22, align 8
  %24 = load i32, ptr %23, align 8
  %25 = and i32 %24, -2
  %switch = icmp eq i32 %25, 22
  br i1 %switch, label %26, label %42

26:                                               ; preds = %21
  %27 = getelementptr inbounds nuw i8, ptr %23, i64 32
  %28 = load ptr, ptr %27, align 8
  %29 = getelementptr inbounds nuw i8, ptr %23, i64 8
  %30 = load ptr, ptr %29, align 8
  %31 = getelementptr inbounds nuw i8, ptr %23, i64 24
  %32 = load ptr, ptr %31, align 8
  %33 = tail call ptr @mm_alloc(i64 noundef 48) #7
  store i32 %24, ptr %33, align 8
  %34 = getelementptr inbounds nuw i8, ptr %33, i64 8
  store ptr null, ptr %34, align 8
  %35 = tail call ptr @mm_strdup(ptr noundef nonnull @.str) #7
  %36 = getelementptr inbounds nuw i8, ptr %33, i64 16
  store ptr %35, ptr %36, align 8
  %37 = getelementptr inbounds nuw i8, ptr %33, i64 24
  tail call void @llvm.memset.p0.i64(ptr noundef nonnull align 8 dereferenceable(20) %37, i8 0, i64 20, i1 false)
  %38 = tail call ptr @mm_strdup(ptr noundef %30) #7
  store ptr %38, ptr %34, align 8
  %39 = tail call ptr @ECPGstruct_member_dup(ptr noundef %28)
  %40 = getelementptr inbounds nuw i8, ptr %33, i64 32
  store ptr %39, ptr %40, align 8
  %41 = tail call ptr @mm_strdup(ptr noundef %32) #7
  store ptr %41, ptr %37, align 8
  br label %73

42:                                               ; preds = %21
  %43 = getelementptr inbounds nuw i8, ptr %23, i64 16
  %44 = load ptr, ptr %43, align 8
  %45 = getelementptr inbounds nuw i8, ptr %23, i64 40
  %46 = load i32, ptr %45, align 8
  %47 = tail call ptr @mm_alloc(i64 noundef 48) #7
  store i32 %24, ptr %47, align 8
  %48 = getelementptr inbounds nuw i8, ptr %47, i64 8
  store ptr null, ptr %48, align 8
  %49 = tail call ptr @mm_strdup(ptr noundef %44) #7
  %50 = getelementptr inbounds nuw i8, ptr %47, i64 16
  store ptr %49, ptr %50, align 8
  %51 = getelementptr inbounds nuw i8, ptr %47, i64 24
  %52 = getelementptr inbounds nuw i8, ptr %47, i64 40
  tail call void @llvm.memset.p0.i64(ptr noundef nonnull align 8 dereferenceable(16) %51, i8 0, i64 16, i1 false)
  store i32 %46, ptr %52, align 8
  %53 = load ptr, ptr %2, align 8
  %54 = getelementptr inbounds nuw i8, ptr %53, i64 16
  %55 = load ptr, ptr %54, align 8
  %56 = tail call ptr @mm_alloc(i64 noundef 48) #7
  store i32 21, ptr %56, align 8
  %57 = getelementptr inbounds nuw i8, ptr %56, i64 8
  store ptr null, ptr %57, align 8
  %58 = tail call ptr @mm_strdup(ptr noundef %55) #7
  %59 = getelementptr inbounds nuw i8, ptr %56, i64 16
  store ptr %58, ptr %59, align 8
  %60 = getelementptr inbounds nuw i8, ptr %56, i64 24
  %61 = getelementptr inbounds nuw i8, ptr %56, i64 32
  tail call void @llvm.memset.p0.i64(ptr noundef nonnull align 8 dereferenceable(20) %60, i8 0, i64 20, i1 false)
  store ptr %47, ptr %61, align 8
  br label %73

62:                                               ; preds = %.lr.ph
  %63 = getelementptr inbounds nuw i8, ptr %3, i64 16
  %64 = load ptr, ptr %63, align 8
  %65 = getelementptr inbounds nuw i8, ptr %3, i64 40
  %66 = load i32, ptr %65, align 8
  %67 = tail call ptr @mm_alloc(i64 noundef 48) #7
  store i32 %4, ptr %67, align 8
  %68 = getelementptr inbounds nuw i8, ptr %67, i64 8
  store ptr null, ptr %68, align 8
  %69 = tail call ptr @mm_strdup(ptr noundef %64) #7
  %70 = getelementptr inbounds nuw i8, ptr %67, i64 16
  store ptr %69, ptr %70, align 8
  %71 = getelementptr inbounds nuw i8, ptr %67, i64 24
  %72 = getelementptr inbounds nuw i8, ptr %67, i64 40
  tail call void @llvm.memset.p0.i64(ptr noundef nonnull align 8 dereferenceable(16) %71, i8 0, i64 16, i1 false)
  store i32 %66, ptr %72, align 8
  br label %73

73:                                               ; preds = %26, %42, %62, %5
  %.0 = phi ptr [ %67, %62 ], [ %33, %26 ], [ %56, %42 ], [ %12, %5 ]
  %74 = load ptr, ptr %.02228, align 8
  %75 = tail call ptr @mm_alloc(i64 noundef 24) #7
  %76 = tail call ptr @mm_strdup(ptr noundef %74) #7
  store ptr %76, ptr %75, align 8
  %77 = getelementptr inbounds nuw i8, ptr %75, i64 8
  store ptr %.0, ptr %77, align 8
  %78 = getelementptr inbounds nuw i8, ptr %75, i64 16
  store ptr null, ptr %78, align 8
  br label %79

79:                                               ; preds = %80, %73
  %.0.i = phi ptr [ %.02527, %73 ], [ %82, %80 ]
  %.not.i = icmp eq ptr %.0.i, null
  br i1 %.not.i, label %ECPGmake_struct_member.exit, label %80

80:                                               ; preds = %79
  %81 = getelementptr inbounds nuw i8, ptr %.0.i, i64 16
  %82 = load ptr, ptr %81, align 8
  %.not15.i = icmp eq ptr %82, null
  br i1 %.not15.i, label %.critedge.i, label %79, !llvm.loop !4

.critedge.i:                                      ; preds = %80
  %83 = getelementptr inbounds nuw i8, ptr %.0.i, i64 16
  store ptr %75, ptr %83, align 8
  br label %ECPGmake_struct_member.exit

ECPGmake_struct_member.exit:                      ; preds = %79, %.critedge.i
  %.1 = phi ptr [ %.02527, %.critedge.i ], [ %75, %79 ]
  %84 = getelementptr inbounds nuw i8, ptr %.02228, i64 16
  %85 = load ptr, ptr %84, align 8
  %.not = icmp eq ptr %85, null
  br i1 %.not, label %._crit_edge, label %.lr.ph, !llvm.loop !6

._crit_edge:                                      ; preds = %ECPGmake_struct_member.exit, %1
  %.025.lcssa = phi ptr [ null, %1 ], [ %.1, %ECPGmake_struct_member.exit ]
  ret ptr %.025.lcssa
}